; Function Attrs: mustprogress nofree norecurse nounwind null_pointer_is_valid sspstrong willreturn memory(readwrite, inaccessiblemem: none) uwtable
define void @_ZN12CaptureEventC2ENS_7ContextENS_9EventTypeE7QString(ptr noundef writeonly align 8 captures(none) dereferenceable_or_null(40) initializes((0, 40)) %0, i32 noundef %1, i32 noundef %2, ptr noundef readonly captures(none) %3) unnamed_addr #1 align 2 personality ptr @__gxx_personality_v0 {
  store i32 %1, ptr %0, align 8
  %5 = getelementptr inbounds nuw i8, ptr %0, i64 4
  store i32 %2, ptr %5, align 4
  %6 = getelementptr inbounds nuw i8, ptr %0, i64 8
  %7 = load ptr, ptr %3, align 8
  store ptr %7, ptr %6, align 8
  %8 = getelementptr inbounds nuw i8, ptr %0, i64 16
  %9 = getelementptr inbounds nuw i8, ptr %3, i64 8
  %10 = load ptr, ptr %9, align 8
  store ptr %10, ptr %8, align 8
  %11 = getelementptr inbounds nuw i8, ptr %0, i64 24
  %12 = getelementptr inbounds nuw i8, ptr %3, i64 16
  %13 = load i64, ptr %12, align 8
  store i64 %13, ptr %11, align 8
  %.not.i.i.i = icmp eq ptr %7, null
  br i1 %.not.i.i.i, label %_ZN7QStringC2ERKS_.exit, label %14

14:                                               ; preds = %4
  %15 = atomicrmw add ptr %7, i32 1 seq_cst, align 4
  br label %_ZN7QStringC2ERKS_.exit

_ZN7QStringC2ERKS_.exit:                          ; preds = %4, %14
  %16 = getelementptr inbounds nuw i8, ptr %0, i64 32
  store ptr null, ptr %16, align 8
  ret void
}